; ModuleID = 'source-C-CXX/61/1678.c'
source_filename = "source-C-CXX/61/1678.c"
target datalayout = "e-m:e-p270:32:32-p271:32:32-p272:64:64-i64:64-f80:128-n8:16:32:64-S128"
target triple = "x86_64-pc-linux-gnu"

; Function Attrs: nounwind sspstrong uwtable
define dso_local i32 @main() local_unnamed_addr #0 {
  %1 = alloca [200 x i8], align 16
  %2 = getelementptr inbounds [200 x i8], [200 x i8]* %1, i64 0, i64 0
  call void @llvm.lifetime.start.p0i8(i64 200, i8* nonnull %2) #6
  call void @llvm.memset.p0i8.i64(i8* noundef nonnull align 16 dereferenceable(200) %2, i8 0, i64 200, i1 false)
  %3 = call i32 (i8*, ...) bitcast (i32 (...)* @gets to i32 (i8*, ...)*)(i8* nonnull %2) #6
  %4 = load i8, i8* %2, align 16, !tbaa !5
  %5 = sext i8 %4 to i32
  %6 = call i32 @putchar(i32 %5)
  %7 = call i64 @strlen(i8* noundef nonnull %2) #7
  %8 = icmp ugt i64 %7, 1
  br i1 %8, label %9, label %28

9:                                                ; preds = %0, %24
  %10 = phi i64 [ %25, %24 ], [ 1, %0 ]
  %11 = getelementptr inbounds [200 x i8], [200 x i8]* %1, i64 0, i64 %10
  %12 = load i8, i8* %11, align 1, !tbaa !5
  %13 = icmp eq i8 %12, 32
  br i1 %13, label %14, label %19

14:                                               ; preds = %9
  %15 = add nsw i64 %10, -1
  %16 = getelementptr inbounds [200 x i8], [200 x i8]* %1, i64 0, i64 %15
  %17 = load i8, i8* %16, align 1, !tbaa !5
  %18 = icmp eq i8 %17, 32
  br i1 %18, label %24, label %21

19:                                               ; preds = %9
  %20 = sext i8 %12 to i32
  br label %21

21:                                               ; preds = %14, %19
  %22 = phi i32 [ %20, %19 ], [ 32, %14 ]
  %23 = call i32 @putchar(i32 %22)
  br label %24

24:                                               ; preds = %21, %14
  %25 = add nuw i64 %10, 1
  %26 = call i64 @strlen(i8* noundef nonnull %2) #7
  %27 = icmp ugt i64 %26, %25
  br i1 %27, label %9, label %28, !llvm.loop !8

28:                                               ; preds = %24, %0
  call void @llvm.lifetime.end.p0i8(i64 200, i8* nonnull %2) #6
  ret i32 0
}

; Function Attrs: argmemonly mustprogress nofree nosync nounwind willreturn
declare void @llvm.lifetime.start.p0i8(i64 immarg, i8* nocapture) #1

; Function Attrs: argmemonly mustprogress nofree nounwind willreturn writeonly
declare void @llvm.memset.p0i8.i64(i8* nocapture writeonly, i8, i64, i1 immarg) #2

declare i32 @gets(...) local_unnamed_addr #3

; Function Attrs: argmemonly mustprogress nofree nounwind readonly willreturn
declare i64 @strlen(i8* nocapture) local_unnamed_addr #4

; Function Attrs: argmemonly mustprogress nofree nosync nounwind willreturn
declare void @llvm.lifetime.end.p0i8(i64 immarg, i8* nocapture) #1

; Function Attrs: nofree nounwind
declare noundef i32 @putchar(i32 noundef) local_unnamed_addr #5


!llvm.module.flags = !{!0, !1, !2, !3}
!llvm.ident = !{!4}

!0 = !{i32 1, !"wchar_size", i32 4}
!1 = !{i32 7, !"PIC Level", i32 2}
!2 = !{i32 7, !"PIE Level", i32 2}
!3 = !{i32 7, !"uwtable", i32 1}
!4 = !{!"clang version 13.0.0"}
!5 = !{!6, !6, i64 0}
!6 = !{!"omnipotent char", !7, i64 0}
!7 = !{!"Simple C/C++ TBAA"}
!8 = distinct !{!8, !9}
!9 = !{!"llvm.loop.mustprogress"}
